target datalayout = "e-m:e-p270:32:32-p271:32:32-p272:64:64-i64:64-i128:128-f80:128-n8:16:32:64-S128"
target triple = "x86_64-pc-linux-gnu"

%struct.XLogReaderState = type { %struct.XLogReaderRoutine, i64, ptr, i64, i64, i64, i64, i64, i64, i64, i64, ptr, ptr, i64, i8, ptr, ptr, ptr, ptr, ptr, i32, %struct.WALSegmentContext, %struct.WALOpenSegment, i32, i64, i32, i64, i32, i64, i32, ptr, i32, ptr, i8, i8 }
%struct.XLogReaderRoutine = type { ptr, ptr, ptr }
%struct.WALSegmentContext = type { [1024 x i8], i32 }
%struct.WALOpenSegment = type { i32, i64, i32 }

@.str.1 = private unnamed_addr constant [12 x i8] c"xlogutils.c\00", align 1
@.str.8 = private unnamed_addr constant [50 x i8] c"requested WAL segment %s has already been removed\00", align 1
@__func__.wal_segment_open = private unnamed_addr constant [17 x i8] c"wal_segment_open\00", align 1
@.str.9 = private unnamed_addr constant [29 x i8] c"could not open file \22%s\22: %m\00", align 1
@.str.17 = private unnamed_addr constant [20 x i8] c"pg_wal/%08X%08X%08X\00", align 1

; Function Attrs: inlinehint nounwind uwtable
define internal void @XLogFilePath(ptr noundef %0, i32 noundef %1, i64 noundef %2, i32 noundef %3) #6 {
  %5 = alloca ptr, align 8
  %6 = alloca i32, align 4
  %7 = alloca i64, align 8
  %8 = alloca i32, align 4
  store ptr %0, ptr %5, align 8
  store i32 %1, ptr %6, align 4
  store i64 %2, ptr %7, align 8
  store i32 %3, ptr %8, align 4
  %9 = load ptr, ptr %5, align 8
  %10 = load i32, ptr %6, align 4
  %11 = load i64, ptr %7, align 8
  %12 = load i32, ptr %8, align 4
  %13 = sext i32 %12 to i64
  %14 = udiv i64 4294967296, %13
  %15 = udiv i64 %11, %14
  %16 = trunc i64 %15 to i32
  %17 = load i64, ptr %7, align 8
  %18 = load i32, ptr %8, align 4
  %19 = sext i32 %18 to i64
  %20 = udiv i64 4294967296, %19
  %21 = urem i64 %17, %20
  %22 = trunc i64 %21 to i32
  %23 = call i32 (ptr, i64, ptr, ...) @pg_snprintf(ptr noundef %9, i64 noundef 1024, ptr noundef @.str.17, i32 noundef %10, i32 noundef %16, i32 noundef %22)
  ret void
}

; Function Attrs: nounwind uwtable
define dso_local void @wal_segment_open(ptr noundef %0, i64 noundef %1, ptr noundef %2) #0 {
  %4 = alloca ptr, align 8
  %5 = alloca i64, align 8
  %6 = alloca ptr, align 8
  %7 = alloca i32, align 4
  %8 = alloca [1024 x i8], align 16
  %9 = alloca i32, align 4
  store ptr %0, ptr %4, align 8
  store i64 %1, ptr %5, align 8
  store ptr %2, ptr %6, align 8
  call void @llvm.lifetime.start.p0(i64 4, ptr %7) #10
  %10 = load ptr, ptr %6, align 8
  %11 = load i32, ptr %10, align 4
  store i32 %11, ptr %7, align 4
  call void @llvm.lifetime.start.p0(i64 1024, ptr %8) #10
  %12 = getelementptr inbounds [1024 x i8], ptr %8, i64 0, i64 0
  %13 = load i32, ptr %7, align 4
  %14 = load i64, ptr %5, align 8
  %15 = load ptr, ptr %4, align 8
  %16 = getelementptr inbounds nuw %struct.XLogReaderState, ptr %15, i32 0, i32 21
  %17 = getelementptr inbounds nuw %struct.WALSegmentContext, ptr %16, i32 0, i32 1
  %18 = load i32, ptr %17, align 4
  call void @XLogFilePath(ptr noundef %12, i32 noundef %13, i64 noundef %14, i32 noundef %18)
  %19 = getelementptr inbounds [1024 x i8], ptr %8, i64 0, i64 0
  %20 = call i32 @BasicOpenFile(ptr noundef %19, i32 noundef 0)
  %21 = load ptr, ptr %4, align 8
  %22 = getelementptr inbounds nuw %struct.XLogReaderState, ptr %21, i32 0, i32 22
  %23 = getelementptr inbounds nuw %struct.WALOpenSegment, ptr %22, i32 0, i32 0
  store i32 %20, ptr %23, align 8
  %24 = load ptr, ptr %4, align 8
  %25 = getelementptr inbounds nuw %struct.XLogReaderState, ptr %24, i32 0, i32 22
  %26 = getelementptr inbounds nuw %struct.WALOpenSegment, ptr %25, i32 0, i32 0
  %27 = load i32, ptr %26, align 8
  %28 = icmp sge i32 %27, 0
  br i1 %28, label %29, label %30

29:                                               ; preds = %3
  store i32 1, ptr %9, align 4
  br label %61

30:                                               ; preds = %3
  %31 = call ptr @__errno_location() #12
  %32 = load i32, ptr %31, align 4
  %33 = icmp eq i32 %32, 2
  br i1 %33, label %34, label %47

34:                                               ; preds = %30
  br label %35

35:                                               ; preds = %34
  br i1 true, label %36, label %38

36:                                               ; preds = %35
  %37 = call zeroext i1 @errstart_cold(i32 noundef 21, ptr noundef null) #11
  br i1 %37, label %40, label %44

38:                                               ; preds = %35
  %39 = call zeroext i1 @errstart(i32 noundef 21, ptr noundef null)
  br i1 %39, label %40, label %44

40:                                               ; preds = %38, %36
  %41 = call i32 @errcode_for_file_access()
  %42 = getelementptr inbounds [1024 x i8], ptr %8, i64 0, i64 0
  %43 = call i32 (ptr, ...) @errmsg(ptr noundef @.str.8, ptr noundef %42)
  call void @errfinish(ptr noundef @.str.1, i32 noundef 832, ptr noundef @__func__.wal_segment_open)
  br label %44

44:                                               ; preds = %40, %38, %36
  unreachable

45:                                               ; No predecessors!
  br label %46

46:                                               ; preds = %45
  br label %60

47:                                               ; preds = %30
  br label %48

48:                                               ; preds = %47
  br i1 true, label %49, label %51

49:                                               ; preds = %48
  %50 = call zeroext i1 @errstart_cold(i32 noundef 21, ptr noundef null) #11
  br i1 %50, label %53, label %57

51:                                               ; preds = %48
  %52 = call zeroext i1 @errstart(i32 noundef 21, ptr noundef null)
  br i1 %52, label %53, label %57

53:                                               ; preds = %51, %49
  %54 = call i32 @errcode_for_file_access()
  %55 = getelementptr inbounds [1024 x i8], ptr %8, i64 0, i64 0
  %56 = call i32 (ptr, ...) @errmsg(ptr noundef @.str.9, ptr noundef %55)
  call void @errfinish(ptr noundef @.str.1, i32 noundef 837, ptr noundef @__func__.wal_segment_open)
  br label %57

57:                                               ; preds = %53, %51, %49
  unreachable

58:                                               ; No predecessors!
  br label %59

59:                                               ; preds = %58
  br label %60

60:                                               ; preds = %59, %46
  store i32 0, ptr %9, align 4
  br label %61

61:                                               ; preds = %60, %29
  call void @llvm.lifetime.end.p0(i64 1024, ptr %8) #10
  call void @llvm.lifetime.end.p0(i64 4, ptr %7) #10
  %62 = load i32, ptr %9, align 4
  switch i32 %62, label %64 [
    i32 0, label %63
    i32 1, label %63
  ]

63:                                               ; preds = %61, %61
  ret void

64:                                               ; preds = %61
  unreachable
}