; Function Attrs: nounwind uwtable
define dso_local void @wal_segment_open(ptr noundef captures(none) initializes((1208, 1212)) %0, i64 noundef %1, ptr noundef readonly captures(none) %2) local_unnamed_addr #0 {
  %4 = alloca [1024 x i8], align 16
  %5 = load i32, ptr %2, align 4
  call void @llvm.lifetime.start.p0(i64 1024, ptr nonnull %4) #8
  %6 = getelementptr inbounds nuw i8, ptr %0, i64 1204
  %7 = load i32, ptr %6, align 4
  %8 = sext i32 %7 to i64
  %9 = udiv i64 4294967296, %8
  %10 = udiv i64 %1, %9
  %11 = trunc i64 %10 to i32
  %12 = urem i64 %1, %9
  %13 = trunc nuw i64 %12 to i32
  %14 = call i32 (ptr, i64, ptr, ...) @pg_snprintf(ptr noundef nonnull %4, i64 noundef 1024, ptr noundef nonnull @.str.17, i32 noundef %5, i32 noundef %11, i32 noundef %13) #8
  %15 = call i32 @BasicOpenFile(ptr noundef nonnull %4, i32 noundef 0) #8
  %16 = getelementptr inbounds nuw i8, ptr %0, i64 1208
  store i32 %15, ptr %16, align 8
  %17 = icmp sgt i32 %15, -1
  br i1 %17, label %18, label %19

18:                                               ; preds = %3
  call void @llvm.lifetime.end.p0(i64 1024, ptr nonnull %4) #8
  ret void

19:                                               ; preds = %3
  %20 = tail call ptr @__errno_location() #10
  %21 = load i32, ptr %20, align 4
  %22 = icmp eq i32 %21, 2
  %23 = call zeroext i1 @errstart_cold(i32 noundef 21, ptr noundef null) #9
  call void @llvm.assume(i1 %23)
  %24 = call i32 @errcode_for_file_access() #8
  br i1 %22, label %25, label %27

25:                                               ; preds = %19
  %26 = call i32 (ptr, ...) @errmsg(ptr noundef nonnull @.str.8, ptr noundef nonnull %4) #8
  call void @errfinish(ptr noundef nonnull @.str.1, i32 noundef 832, ptr noundef nonnull @__func__.wal_segment_open) #8
  unreachable

27:                                               ; preds = %19
  %28 = call i32 (ptr, ...) @errmsg(ptr noundef nonnull @.str.9, ptr noundef nonnull %4) #8
  call void @errfinish(ptr noundef nonnull @.str.1, i32 noundef 837, ptr noundef nonnull @__func__.wal_segment_open) #8
  unreachable
}